target datalayout = "e-m:e-p270:32:32-p271:32:32-p272:64:64-i64:64-i128:128-f80:128-n8:16:32:64-S128"
target triple = "x86_64-pc-linux-gnu"

%"class.icu_77::UnicodeString" = type { %"class.icu_77::Replaceable", %"union.icu_77::UnicodeString::StackBufferOrFields" }
%"class.icu_77::Replaceable" = type { %"class.icu_77::UObject" }
%"class.icu_77::UObject" = type { ptr }
%"union.icu_77::UnicodeString::StackBufferOrFields" = type { %struct.anon.0, [32 x i8] }
%struct.anon.0 = type { i16, i32, i32, ptr }

; Function Attrs: inlinehint mustprogress nounwind uwtable
define linkonce_odr noundef i32 @_ZNK6icu_7713UnicodeString14getShortLengthEv(ptr noundef nonnull align 8 dereferenceable(64) %0) #7 comdat align 2 {
  %2 = alloca ptr, align 8
  store ptr %0, ptr %2, align 8, !tbaa !10
  %3 = load ptr, ptr %2, align 8
  %4 = getelementptr inbounds nuw %"class.icu_77::UnicodeString", ptr %3, i32 0, i32 1
  %5 = getelementptr inbounds nuw %struct.anon.0, ptr %4, i32 0, i32 0
  %6 = load i16, ptr %5, align 8, !tbaa !21
  %7 = sext i16 %6 to i32
  %8 = ashr i32 %7, 5
  ret i32 %8
}

; Function Attrs: inlinehint mustprogress nounwind uwtable
define linkonce_odr noundef signext i8 @_ZNK6icu_7713UnicodeString14hasShortLengthEv(ptr noundef nonnull align 8 dereferenceable(64) %0) #7 comdat align 2 {
  %2 = alloca ptr, align 8
  store ptr %0, ptr %2, align 8, !tbaa !10
  %3 = load ptr, ptr %2, align 8
  %4 = getelementptr inbounds nuw %"class.icu_77::UnicodeString", ptr %3, i32 0, i32 1
  %5 = getelementptr inbounds nuw %struct.anon.0, ptr %4, i32 0, i32 0
  %6 = load i16, ptr %5, align 8, !tbaa !21
  %7 = sext i16 %6 to i32
  %8 = icmp sge i32 %7, 0
  %9 = zext i1 %8 to i8
  ret i8 %9
}

; Function Attrs: inlinehint mustprogress uwtable
define linkonce_odr noundef i32 @_ZNK6icu_7713UnicodeString6lengthEv(ptr noundef nonnull align 8 dereferenceable(64) %0) #4 comdat align 2 {
  %2 = alloca ptr, align 8
  store ptr %0, ptr %2, align 8, !tbaa !10
  %3 = load ptr, ptr %2, align 8
  %4 = call noundef signext i8 @_ZNK6icu_7713UnicodeString14hasShortLengthEv(ptr noundef nonnull align 8 dereferenceable(64) %3)
  %5 = icmp ne i8 %4, 0
  br i1 %5, label %6, label %8

6:                                                ; preds = %1
  %7 = call noundef i32 @_ZNK6icu_7713UnicodeString14getShortLengthEv(ptr noundef nonnull align 8 dereferenceable(64) %3)
  br label %12

8:                                                ; preds = %1
  %9 = getelementptr inbounds nuw %"class.icu_77::UnicodeString", ptr %3, i32 0, i32 1
  %10 = getelementptr inbounds nuw %struct.anon.0, ptr %9, i32 0, i32 1
  %11 = load i32, ptr %10, align 4, !tbaa !21
  br label %12

12:                                               ; preds = %8, %6
  %13 = phi i32 [ %7, %6 ], [ %11, %8 ]
  ret i32 %13
}

; Function Attrs: mustprogress uwtable
define noundef i32 @_ZN6icu_776number4impl10AffixUtils14estimateLengthERKNS_13UnicodeStringER10UErrorCode(ptr noundef nonnull align 8 dereferenceable(64) %0, ptr noundef nonnull align 4 dereferenceable(4) %1) #2 align 2 {
  %3 = alloca ptr, align 8
  %4 = alloca ptr, align 8
  %5 = alloca i32, align 4
  %6 = alloca i32, align 4
  %7 = alloca i32, align 4
  %8 = alloca i32, align 4
  store ptr %0, ptr %3, align 8, !tbaa !10
  store ptr %1, ptr %4, align 8, !tbaa !12
  call void @llvm.lifetime.start.p0(i64 4, ptr %5) #11
  store i32 0, ptr %5, align 4, !tbaa !13
  call void @llvm.lifetime.start.p0(i64 4, ptr %6) #11
  store i32 0, ptr %6, align 4, !tbaa !15
  call void @llvm.lifetime.start.p0(i64 4, ptr %7) #11
  store i32 0, ptr %7, align 4, !tbaa !15
  br label %9

9:                                                ; preds = %56, %2
  %10 = load i32, ptr %6, align 4, !tbaa !15
  %11 = load ptr, ptr %3, align 8, !tbaa !10
  %12 = call noundef i32 @_ZNK6icu_7713UnicodeString6lengthEv(ptr noundef nonnull align 8 dereferenceable(64) %11)
  %13 = icmp slt i32 %10, %12
  br i1 %13, label %14, label %62

14:                                               ; preds = %9
  call void @llvm.lifetime.start.p0(i64 4, ptr %8) #11
  %15 = load ptr, ptr %3, align 8, !tbaa !10
  %16 = load i32, ptr %6, align 4, !tbaa !15
  %17 = call noundef i32 @_ZNK6icu_7713UnicodeString8char32AtEi(ptr noundef nonnull align 8 dereferenceable(64) %15, i32 noundef %16)
  store i32 %17, ptr %8, align 4, !tbaa !15
  %18 = load i32, ptr %5, align 4, !tbaa !13
  switch i32 %18, label %55 [
    i32 0, label %19
    i32 1, label %27
    i32 2, label %37
    i32 3, label %45
  ]

19:                                               ; preds = %14
  %20 = load i32, ptr %8, align 4, !tbaa !15
  %21 = icmp eq i32 %20, 39
  br i1 %21, label %22, label %23

22:                                               ; preds = %19
  store i32 1, ptr %5, align 4, !tbaa !13
  br label %26

23:                                               ; preds = %19
  %24 = load i32, ptr %7, align 4, !tbaa !15
  %25 = add nsw i32 %24, 1
  store i32 %25, ptr %7, align 4, !tbaa !15
  br label %26

26:                                               ; preds = %23, %22
  br label %56

27:                                               ; preds = %14
  %28 = load i32, ptr %8, align 4, !tbaa !15
  %29 = icmp eq i32 %28, 39
  br i1 %29, label %30, label %33

30:                                               ; preds = %27
  %31 = load i32, ptr %7, align 4, !tbaa !15
  %32 = add nsw i32 %31, 1
  store i32 %32, ptr %7, align 4, !tbaa !15
  store i32 0, ptr %5, align 4, !tbaa !13
  br label %36

33:                                               ; preds = %27
  %34 = load i32, ptr %7, align 4, !tbaa !15
  %35 = add nsw i32 %34, 1
  store i32 %35, ptr %7, align 4, !tbaa !15
  store i32 2, ptr %5, align 4, !tbaa !13
  br label %36

36:                                               ; preds = %33, %30
  br label %56

37:                                               ; preds = %14
  %38 = load i32, ptr %8, align 4, !tbaa !15
  %39 = icmp eq i32 %38, 39
  br i1 %39, label %40, label %41

40:                                               ; preds = %37
  store i32 3, ptr %5, align 4, !tbaa !13
  br label %44

41:                                               ; preds = %37
  %42 = load i32, ptr %7, align 4, !tbaa !15
  %43 = add nsw i32 %42, 1
  store i32 %43, ptr %7, align 4, !tbaa !15
  br label %44

44:                                               ; preds = %41, %40
  br label %56

45:                                               ; preds = %14
  %46 = load i32, ptr %8, align 4, !tbaa !15
  %47 = icmp eq i32 %46, 39
  br i1 %47, label %48, label %51

48:                                               ; preds = %45
  %49 = load i32, ptr %7, align 4, !tbaa !15
  %50 = add nsw i32 %49, 1
  store i32 %50, ptr %7, align 4, !tbaa !15
  store i32 2, ptr %5, align 4, !tbaa !13
  br label %54

51:                                               ; preds = %45
  %52 = load i32, ptr %7, align 4, !tbaa !15
  %53 = add nsw i32 %52, 1
  store i32 %53, ptr %7, align 4, !tbaa !15
  br label %54

54:                                               ; preds = %51, %48
  br label %56

55:                                               ; preds = %14
  call void @abort() #10
  unreachable

56:                                               ; preds = %54, %44, %36, %26
  %57 = load i32, ptr %8, align 4, !tbaa !15
  %58 = icmp ule i32 %57, 65535
  %59 = select i1 %58, i32 1, i32 2
  %60 = load i32, ptr %6, align 4, !tbaa !15
  %61 = add nsw i32 %60, %59
  store i32 %61, ptr %6, align 4, !tbaa !15
  call void @llvm.lifetime.end.p0(i64 4, ptr %8) #11
  br label %9, !llvm.loop !17

62:                                               ; preds = %9
  %63 = load i32, ptr %5, align 4, !tbaa !13
  switch i32 %63, label %66 [
    i32 1, label %64
    i32 2, label %64
  ]

64:                                               ; preds = %62, %62
  %65 = load ptr, ptr %4, align 8, !tbaa !12
  store i32 1, ptr %65, align 4, !tbaa !19
  br label %67

66:                                               ; preds = %62
  br label %67

67:                                               ; preds = %66, %64
  %68 = load i32, ptr %7, align 4, !tbaa !15
  call void @llvm.lifetime.end.p0(i64 4, ptr %7) #11
  call void @llvm.lifetime.end.p0(i64 4, ptr %6) #11
  call void @llvm.lifetime.end.p0(i64 4, ptr %5) #11
  ret i32 %68
}