; Function Attrs: mustprogress uwtable
define noundef i32 @_ZN6icu_776number4impl10AffixUtils14estimateLengthERKNS_13UnicodeStringER10UErrorCode(ptr noundef nonnull align 8 dereferenceable(64) %0, ptr noundef nonnull writeonly align 4 captures(none) dereferenceable(4) %1) local_unnamed_addr #3 align 2 {
  %3 = getelementptr inbounds nuw i8, ptr %0, i64 8
  %4 = getelementptr inbounds nuw i8, ptr %0, i64 12
  %5 = load i16, ptr %3, align 8, !tbaa !3
  %6 = icmp slt i16 %5, 0
  %7 = ashr i16 %5, 5
  %8 = sext i16 %7 to i32
  %9 = load i32, ptr %4, align 4
  %10 = select i1 %6, i32 %9, i32 %8
  %11 = icmp sgt i32 %10, 0
  br i1 %11, label %.lr.ph, label %._crit_edge.thread

.lr.ph:                                           ; preds = %2, %25
  %.030 = phi i32 [ %.1, %25 ], [ 0, %2 ]
  %.01929 = phi i32 [ %.120, %25 ], [ 0, %2 ]
  %.02128 = phi i32 [ %28, %25 ], [ 0, %2 ]
  %12 = tail call noundef i32 @_ZNK6icu_7713UnicodeString8char32AtEi(ptr noundef nonnull align 8 dereferenceable(64) %0, i32 noundef %.02128)
  switch i32 %.030, label %default.unreachable [
    i32 0, label %13
    i32 1, label %16
    i32 2, label %19
    i32 3, label %22
  ]

13:                                               ; preds = %.lr.ph
  %14 = icmp ne i32 %12, 39
  %15 = zext i1 %14 to i32
  %spec.select = add nsw i32 %.01929, %15
  %not. = xor i1 %14, true
  %spec.select23 = zext i1 %not. to i32
  br label %25

16:                                               ; preds = %.lr.ph
  %17 = icmp eq i32 %12, 39
  %18 = add nsw i32 %.01929, 1
  %. = select i1 %17, i32 0, i32 2
  br label %25

19:                                               ; preds = %.lr.ph
  %20 = icmp ne i32 %12, 39
  %21 = zext i1 %20 to i32
  %spec.select24 = add nsw i32 %.01929, %21
  %spec.select25 = select i1 %20, i32 2, i32 3
  br label %25

22:                                               ; preds = %.lr.ph
  %23 = icmp eq i32 %12, 39
  %24 = add nsw i32 %.01929, 1
  %.22 = select i1 %23, i32 2, i32 3
  br label %25

default.unreachable:                              ; preds = %.lr.ph
  unreachable

25:                                               ; preds = %19, %13, %22, %16
  %.120 = phi i32 [ %18, %16 ], [ %24, %22 ], [ %spec.select, %13 ], [ %spec.select24, %19 ]
  %.1 = phi i32 [ %., %16 ], [ %.22, %22 ], [ %spec.select23, %13 ], [ %spec.select25, %19 ]
  %26 = icmp ult i32 %12, 65536
  %27 = select i1 %26, i32 1, i32 2
  %28 = add nuw nsw i32 %27, %.02128
  %29 = load i16, ptr %3, align 8, !tbaa !3
  %30 = icmp slt i16 %29, 0
  %31 = ashr i16 %29, 5
  %32 = sext i16 %31 to i32
  %33 = load i32, ptr %4, align 4
  %34 = select i1 %30, i32 %33, i32 %32
  %35 = icmp slt i32 %28, %34
  br i1 %35, label %.lr.ph, label %._crit_edge, !llvm.loop !6

._crit_edge:                                      ; preds = %25
  %36 = add nsw i32 %.1, -1
  %37 = icmp ult i32 %36, 2
  br i1 %37, label %38, label %._crit_edge.thread

38:                                               ; preds = %._crit_edge
  store i32 1, ptr %1, align 4, !tbaa !8
  br label %._crit_edge.thread

._crit_edge.thread:                               ; preds = %2, %._crit_edge, %38
  %.019.lcssa34 = phi i32 [ %.120, %._crit_edge ], [ %.120, %38 ], [ 0, %2 ]
  ret i32 %.019.lcssa34
}